; Function Attrs: nofree norecurse nosync nounwind memory(argmem: readwrite) uwtable
define internal void @put_vp8_epel8_h6v4_c(ptr noundef writeonly captures(none) %0, i64 noundef %1, ptr noundef readonly captures(none) %2, i64 noundef %3, i32 noundef %4, i32 noundef %5, i32 noundef %6) #1 {
  %8 = alloca [152 x i8], align 16
  call void @llvm.lifetime.start.p0(i64 152, ptr nonnull %8) #5
  %9 = icmp sgt i32 %4, -3
  br i1 %9, label %.preheader67.lr.ph, label %._crit_edge80

.preheader67.lr.ph:                               ; preds = %7
  %10 = sub i64 0, %3
  %11 = getelementptr inbounds i8, ptr %2, i64 %10
  %12 = add nsw i32 %5, -1
  %13 = sext i32 %12 to i64
  %14 = getelementptr inbounds [7 x [6 x i8]], ptr @subpel_filters, i64 0, i64 %13
  %15 = getelementptr inbounds nuw i8, ptr %14, i64 2
  %16 = load i8, ptr %15, align 2, !tbaa !10
  %17 = zext i8 %16 to i32
  %18 = getelementptr inbounds nuw i8, ptr %14, i64 1
  %19 = load i8, ptr %18, align 1, !tbaa !10
  %20 = zext i8 %19 to i32
  %21 = load i8, ptr %14, align 2, !tbaa !10
  %22 = zext i8 %21 to i32
  %23 = getelementptr inbounds nuw i8, ptr %14, i64 3
  %24 = load i8, ptr %23, align 1, !tbaa !10
  %25 = zext i8 %24 to i32
  %26 = getelementptr inbounds nuw i8, ptr %14, i64 4
  %27 = load i8, ptr %26, align 2, !tbaa !10
  %28 = zext i8 %27 to i32
  %29 = getelementptr inbounds nuw i8, ptr %14, i64 5
  %30 = load i8, ptr %29, align 1, !tbaa !10
  %31 = zext i8 %30 to i32
  %32 = add i32 %4, 2
  %smax = tail call i32 @llvm.smax.i32(i32 %32, i32 0)
  br label %.preheader67

.preheader67:                                     ; preds = %.preheader67.lr.ph, %69
  %.072 = phi ptr [ %8, %.preheader67.lr.ph ], [ %70, %69 ]
  %.05571 = phi i32 [ 0, %.preheader67.lr.ph ], [ %72, %69 ]
  %.06070 = phi ptr [ %11, %.preheader67.lr.ph ], [ %71, %69 ]
  %.pre = load i8, ptr %.06070, align 1, !tbaa !10
  br label %33

33:                                               ; preds = %.preheader67, %33
  %34 = phi i8 [ %.pre, %.preheader67 ], [ %47, %33 ]
  %indvars.iv = phi i64 [ 0, %.preheader67 ], [ %indvars.iv.next, %33 ]
  %35 = getelementptr inbounds nuw i8, ptr %.06070, i64 %indvars.iv
  %36 = zext i8 %34 to i32
  %37 = mul nuw nsw i32 %36, %17
  %38 = getelementptr i8, ptr %35, i64 -1
  %39 = load i8, ptr %38, align 1, !tbaa !10
  %40 = zext i8 %39 to i32
  %41 = mul nuw nsw i32 %20, %40
  %42 = getelementptr i8, ptr %35, i64 -2
  %43 = load i8, ptr %42, align 1, !tbaa !10
  %44 = zext i8 %43 to i32
  %45 = mul nuw nsw i32 %44, %22
  %indvars.iv.next = add nuw nsw i64 %indvars.iv, 1
  %46 = getelementptr inbounds nuw i8, ptr %.06070, i64 %indvars.iv.next
  %47 = load i8, ptr %46, align 1, !tbaa !10
  %48 = zext i8 %47 to i32
  %49 = mul nuw nsw i32 %48, %25
  %50 = getelementptr inbounds nuw i8, ptr %35, i64 2
  %51 = load i8, ptr %50, align 1, !tbaa !10
  %52 = zext i8 %51 to i32
  %53 = mul nuw nsw i32 %28, %52
  %54 = getelementptr inbounds nuw i8, ptr %35, i64 3
  %55 = load i8, ptr %54, align 1, !tbaa !10
  %56 = zext i8 %55 to i32
  %57 = mul nuw nsw i32 %56, %31
  %58 = add nuw nsw i32 %53, %41
  %59 = add nuw nsw i32 %37, 64
  %60 = add nuw nsw i32 %59, %45
  %61 = add nuw nsw i32 %60, %49
  %62 = add nuw nsw i32 %61, %57
  %63 = sub nsw i32 %62, %58
  %64 = ashr i32 %63, 7
  %65 = sext i32 %64 to i64
  %66 = getelementptr inbounds i8, ptr getelementptr inbounds nuw (i8, ptr @ff_crop_tab, i64 1024), i64 %65
  %67 = load i8, ptr %66, align 1, !tbaa !10
  %68 = getelementptr inbounds nuw i8, ptr %.072, i64 %indvars.iv
  store i8 %67, ptr %68, align 1, !tbaa !10
  %exitcond.not = icmp eq i64 %indvars.iv.next, 8
  br i1 %exitcond.not, label %69, label %33, !llvm.loop !46

69:                                               ; preds = %33
  %70 = getelementptr inbounds nuw i8, ptr %.072, i64 8
  %71 = getelementptr inbounds i8, ptr %.06070, i64 %3
  %72 = add nuw i32 %.05571, 1
  %exitcond82.not = icmp eq i32 %.05571, %smax
  br i1 %exitcond82.not, label %._crit_edge, label %.preheader67, !llvm.loop !47

._crit_edge:                                      ; preds = %69
  %73 = icmp sgt i32 %4, 0
  br i1 %73, label %.preheader.lr.ph, label %._crit_edge80

.preheader.lr.ph:                                 ; preds = %._crit_edge
  %74 = add nsw i32 %6, -1
  %75 = sext i32 %74 to i64
  %76 = getelementptr inbounds [7 x [6 x i8]], ptr @subpel_filters, i64 0, i64 %75
  %77 = getelementptr inbounds nuw i8, ptr %76, i64 2
  %78 = load i8, ptr %77, align 2, !tbaa !10
  %79 = zext i8 %78 to i32
  %80 = getelementptr inbounds nuw i8, ptr %76, i64 1
  %81 = load i8, ptr %80, align 1, !tbaa !10
  %82 = zext i8 %81 to i32
  %83 = getelementptr inbounds nuw i8, ptr %76, i64 3
  %84 = load i8, ptr %83, align 1, !tbaa !10
  %85 = zext i8 %84 to i32
  %86 = getelementptr inbounds nuw i8, ptr %76, i64 4
  %87 = load i8, ptr %86, align 2, !tbaa !10
  %88 = zext i8 %87 to i32
  br label %.preheader

.preheader:                                       ; preds = %.preheader.lr.ph, %115
  %.pn = phi ptr [ %8, %.preheader.lr.ph ], [ %.179, %115 ]
  %.15678 = phi i32 [ 0, %.preheader.lr.ph ], [ %117, %115 ]
  %.05977 = phi ptr [ %0, %.preheader.lr.ph ], [ %116, %115 ]
  %.179 = getelementptr inbounds nuw i8, ptr %.pn, i64 8
  br label %89

89:                                               ; preds = %.preheader, %89
  %indvars.iv83 = phi i64 [ 0, %.preheader ], [ %indvars.iv.next84, %89 ]
  %90 = getelementptr inbounds nuw i8, ptr %.179, i64 %indvars.iv83
  %91 = load i8, ptr %90, align 1, !tbaa !10
  %92 = zext i8 %91 to i32
  %93 = mul nuw nsw i32 %92, %79
  %94 = getelementptr i8, ptr %90, i64 -8
  %95 = load i8, ptr %94, align 1, !tbaa !10
  %96 = zext i8 %95 to i32
  %97 = getelementptr inbounds nuw i8, ptr %90, i64 8
  %98 = load i8, ptr %97, align 1, !tbaa !10
  %99 = zext i8 %98 to i32
  %100 = mul nuw nsw i32 %99, %85
  %101 = getelementptr inbounds nuw i8, ptr %90, i64 16
  %102 = load i8, ptr %101, align 1, !tbaa !10
  %103 = zext i8 %102 to i32
  %104 = mul nuw nsw i32 %82, %96
  %105 = mul nuw nsw i32 %88, %103
  %106 = add nuw nsw i32 %105, %104
  %107 = add nuw nsw i32 %93, 64
  %108 = add nuw nsw i32 %107, %100
  %109 = sub nsw i32 %108, %106
  %110 = ashr i32 %109, 7
  %111 = sext i32 %110 to i64
  %112 = getelementptr inbounds i8, ptr getelementptr inbounds nuw (i8, ptr @ff_crop_tab, i64 1024), i64 %111
  %113 = load i8, ptr %112, align 1, !tbaa !10
  %114 = getelementptr inbounds nuw i8, ptr %.05977, i64 %indvars.iv83
  store i8 %113, ptr %114, align 1, !tbaa !10
  %indvars.iv.next84 = add nuw nsw i64 %indvars.iv83, 1
  %exitcond86.not = icmp eq i64 %indvars.iv.next84, 8
  br i1 %exitcond86.not, label %115, label %89, !llvm.loop !48

115:                                              ; preds = %89
  %116 = getelementptr inbounds i8, ptr %.05977, i64 %1
  %117 = add nuw nsw i32 %.15678, 1
  %exitcond87.not = icmp eq i32 %117, %4
  br i1 %exitcond87.not, label %._crit_edge80, label %.preheader, !llvm.loop !49

._crit_edge80:                                    ; preds = %115, %7, %._crit_edge
  call void @llvm.lifetime.end.p0(i64 152, ptr nonnull %8) #5
  ret void
}